; Function Attrs: mustprogress nounwind memory(argmem: readwrite, inaccessiblemem: write) uwtable
define noundef i64 @_ZN8facebook5velox4util14fromDateStringEPKcm(ptr noundef readonly captures(none) %str, i64 noundef %len) local_unnamed_addr #4 {
entry:
  %daysSinceEpoch = alloca i64, align 8
  %pos = alloca i64, align 8
  %call = call fastcc noundef zeroext i1 @_ZN8facebook5velox4util12_GLOBAL__N_118tryParseDateStringEPKcmRmRlNS2_9ParseModeE(ptr noundef %str, i64 noundef %len, ptr noundef nonnull align 8 dereferenceable(8) %pos, ptr noundef nonnull align 8 dereferenceable(8) %daysSinceEpoch, i32 noundef 0)
  br i1 %call, label %if.end, label %if.then

if.then:                                          ; preds = %entry
  tail call void @llvm.trap()
  unreachable

if.end:                                           ; preds = %entry
  %0 = load i64, ptr %daysSinceEpoch, align 8
  ret i64 %0
}